; Function Attrs: mustprogress uwtable
define void @_ZN15RtpStreamDialog17captureFileClosedEv(ptr noundef nonnull align 8 dereferenceable(360) %0) unnamed_addr #0 align 2 {
  %2 = getelementptr inbounds i8, ptr %0, i64 136
  %3 = load ptr, ptr %2, align 8
  %4 = getelementptr inbounds i8, ptr %3, i64 176
  %5 = load ptr, ptr %4, align 8
  tail call void @_ZN7QWidget10setEnabledEb(ptr noundef nonnull align 8 dereferenceable(40) %5, i1 noundef zeroext false)
  %6 = load ptr, ptr %2, align 8
  %7 = getelementptr inbounds i8, ptr %6, i64 168
  %8 = load ptr, ptr %7, align 8
  tail call void @_ZN7QWidget10setEnabledEb(ptr noundef nonnull align 8 dereferenceable(40) %8, i1 noundef zeroext false)
  tail call void @_ZN15WiresharkDialog17captureFileClosedEv(ptr noundef nonnull align 8 dereferenceable(133) %0)
  ret void
}